target datalayout = "e-m:e-p270:32:32-p271:32:32-p272:64:64-i64:64-i128:128-f80:128-n8:16:32:64-S128"
target triple = "x86_64-pc-linux-gnu"

%struct.redisServer = type { i32, i64, ptr, ptr, ptr, i32, i32, i32, i32, i32, ptr, ptr, ptr, ptr, ptr, i32, i32, i32, i32, i64, i32, i32, i32, i32, ptr, i32, i32, [41 x i8], i32, i64, i32, i32, i32, ptr, ptr, i32, i32, i64, ptr, ptr, ptr, ptr, [2 x i32], i32, i32, i32, i32, i32, i32, [16 x ptr], i32, ptr, ptr, i32, [8 x %struct.connListener], i32, %struct.connListener, ptr, ptr, ptr, ptr, ptr, ptr, ptr, ptr, ptr, ptr, i32, ptr, i32, ptr, [3 x %struct.pause_event], [256 x i8], ptr, i64, i32, i32, [128 x i32], i32, i32, i64, i32, i32, i32, i32, i32, i64, i64, i64, i64, i64, i64, i64, i64, i64, i64, double, i64, i64, i64, i64, i64, i64, i64, i64, i64, i64, i64, i64, i64, i64, i64, i64, i64, i64, i64, i64, i64, double, i64, i64, i64, i64, i64, ptr, i64, i64, i64, %struct.malloc_stats, i64, i64, i64, i64, i64, i64, i64, i64, i64, i64, i64, i64, double, [4 x i64], i64, i64, i64, i64, [128 x i64], [128 x i64], i64, i64, [7 x %struct.anon], i64, i64, i64, i64, i64, i64, [4 x %struct.durationStats], i32, i32, i32, i32, i32, i32, i32, i32, i32, i32, i32, i32, i64, i32, i32, i32, i32, i64, i64, i32, i32, i32, i32, i32, ptr, [3 x %struct.clientBufferLimitsConfig], i32, i32, i32, ptr, i32, i32, i32, i32, i32, i32, ptr, ptr, i32, i32, i64, i64, i64, i64, i64, i32, i32, ptr, i32, i32, i64, i64, i64, i64, i64, i32, i32, i64, i32, i32, i32, i32, i32, i32, i32, i32, ptr, i32, i64, i64, i64, i64, i32, ptr, i32, ptr, i32, i32, i32, i64, i64, i64, i64, i32, i32, i32, i32, i32, i32, ptr, i32, i32, ptr, i32, i32, i32, [2 x i32], i32, %struct.redisOpArray, i32, ptr, i32, ptr, i32, i32, i32, i32, i32, i32, i32, [41 x i8], [41 x i8], i64, i64, i64, i64, i32, i32, ptr, i64, i64, %struct.replDataBuf, i64, i64, i32, i32, i32, i32, i32, i32, i32, i32, i32, i64, ptr, i64, ptr, ptr, ptr, i32, i32, ptr, ptr, i32, i32, i32, i64, i64, i64, i64, ptr, ptr, i32, ptr, i64, i32, i32, i32, i64, i32, i32, i32, i32, ptr, i32, i32, [41 x i8], i64, i32, ptr, i32, i32, i64, i64, i32, i32, i32, i32, i32, i64, [3 x i32], i32, i32, i32, [10 x i32], ptr, ptr, i32, i64, ptr, ptr, i32, i32, i32, i32, i64, i64, i64, i64, i64, i64, i64, i64, i64, i64, i32, i32, i64, i64, i32, i64, i64, i64, i64, i64, ptr, ptr, i32, ptr, i32, i32, i32, i32, i64, i64, ptr, ptr, i32, i32, i32, i32, i32, ptr, ptr, ptr, i32, i32, i32, i32, i32, i32, i32, i64, i32, i32, i64, i32, i32, i32, i32, i32, i32, i32, i64, ptr, ptr, i64, ptr, i32, %struct.aclInfo, i32, i64, i32, i32, i32, %struct.redisTLSContextConfig, ptr, ptr, ptr, ptr, ptr, i64, i32, ptr, i32, i32, i32, i64, i32, ptr }
%struct.connListener = type { [16 x i32], i32, ptr, i32, i32, ptr, ptr }
%struct.pause_event = type { i32, i64 }
%struct.malloc_stats = type { i64, i64, i64, i64, i64, i64, i64, i64, i64, i64, i64 }
%struct.anon = type { i64, i64, [16 x i64], i32 }
%struct.durationStats = type { i64, i64, i64 }
%struct.clientBufferLimitsConfig = type { i64, i64, i64 }
%struct.redisOpArray = type { ptr, i32, i32 }
%struct.replDataBuf = type { ptr, i64, i64, i64, i64 }
%struct.aclInfo = type { i64, i64, i64, i64 }
%struct.redisTLSContextConfig = type { ptr, ptr, ptr, ptr, ptr, ptr, ptr, ptr, ptr, ptr, ptr, ptr, i32, i32, i32, i32 }

@.str.4 = private unnamed_addr constant [2 x i8] c" \00", align 1
@server = external global %struct.redisServer, align 8
@.str.94 = private unnamed_addr constant [44 x i8] c"redis.log() requires two arguments or more.\00", align 1
@.str.95 = private unnamed_addr constant [45 x i8] c"First argument must be a number (log level).\00", align 1
@.str.96 = private unnamed_addr constant [19 x i8] c"Invalid log level.\00", align 1

; Function Attrs: nounwind uwtable
define dso_local i32 @luaError(ptr noundef %0) #0 {
  %2 = alloca ptr, align 8
  store ptr %0, ptr %2, align 8, !tbaa !5
  %3 = load ptr, ptr %2, align 8, !tbaa !5
  %4 = call i32 @lua_error(ptr noundef %3)
  ret i32 %4
}

; Function Attrs: nounwind uwtable
define dso_local void @luaPushError(ptr noundef %0, ptr noundef %1) #0 {
  %3 = alloca ptr, align 8
  %4 = alloca ptr, align 8
  store ptr %0, ptr %3, align 8, !tbaa !5
  store ptr %1, ptr %4, align 8, !tbaa !10
  %5 = load ptr, ptr %3, align 8, !tbaa !5
  %6 = load ptr, ptr %4, align 8, !tbaa !10
  %7 = call ptr @sdsnew(ptr noundef %6)
  call void @luaPushErrorBuff(ptr noundef %5, ptr noundef %7)
  ret void
}

; Function Attrs: nounwind uwtable
define internal i32 @luaLogCommand(ptr noundef %0) #0 {
  %2 = alloca i32, align 4
  %3 = alloca ptr, align 8
  %4 = alloca i32, align 4
  %5 = alloca i32, align 4
  %6 = alloca i32, align 4
  %7 = alloca ptr, align 8
  %8 = alloca i32, align 4
  %9 = alloca i64, align 8
  %10 = alloca ptr, align 8
  store ptr %0, ptr %3, align 8, !tbaa !5
  call void @llvm.lifetime.start.p0(i64 4, ptr %4) #12
  call void @llvm.lifetime.start.p0(i64 4, ptr %5) #12
  %11 = load ptr, ptr %3, align 8, !tbaa !5
  %12 = call i32 @lua_gettop(ptr noundef %11)
  store i32 %12, ptr %5, align 4, !tbaa !16
  call void @llvm.lifetime.start.p0(i64 4, ptr %6) #12
  call void @llvm.lifetime.start.p0(i64 8, ptr %7) #12
  %13 = load i32, ptr %5, align 4, !tbaa !16
  %14 = icmp slt i32 %13, 2
  br i1 %14, label %15, label %19

15:                                               ; preds = %1
  %16 = load ptr, ptr %3, align 8, !tbaa !5
  call void @luaPushError(ptr noundef %16, ptr noundef @.str.94)
  %17 = load ptr, ptr %3, align 8, !tbaa !5
  %18 = call i32 @luaError(ptr noundef %17)
  store i32 %18, ptr %2, align 4
  store i32 1, ptr %8, align 4
  br label %84

19:                                               ; preds = %1
  %20 = load ptr, ptr %3, align 8, !tbaa !5
  %21 = load i32, ptr %5, align 4, !tbaa !16
  %22 = sub nsw i32 0, %21
  %23 = call i32 @lua_isnumber(ptr noundef %20, i32 noundef %22)
  %24 = icmp ne i32 %23, 0
  br i1 %24, label %29, label %25

25:                                               ; preds = %19
  %26 = load ptr, ptr %3, align 8, !tbaa !5
  call void @luaPushError(ptr noundef %26, ptr noundef @.str.95)
  %27 = load ptr, ptr %3, align 8, !tbaa !5
  %28 = call i32 @luaError(ptr noundef %27)
  store i32 %28, ptr %2, align 4
  store i32 1, ptr %8, align 4
  br label %84

29:                                               ; preds = %19
  br label %30

30:                                               ; preds = %29
  %31 = load ptr, ptr %3, align 8, !tbaa !5
  %32 = load i32, ptr %5, align 4, !tbaa !16
  %33 = sub nsw i32 0, %32
  %34 = call double @lua_tonumber(ptr noundef %31, i32 noundef %33)
  %35 = fptosi double %34 to i32
  store i32 %35, ptr %6, align 4, !tbaa !16
  %36 = load i32, ptr %6, align 4, !tbaa !16
  %37 = icmp slt i32 %36, 0
  br i1 %37, label %41, label %38

38:                                               ; preds = %30
  %39 = load i32, ptr %6, align 4, !tbaa !16
  %40 = icmp sgt i32 %39, 3
  br i1 %40, label %41, label %45

41:                                               ; preds = %38, %30
  %42 = load ptr, ptr %3, align 8, !tbaa !5
  call void @luaPushError(ptr noundef %42, ptr noundef @.str.96)
  %43 = load ptr, ptr %3, align 8, !tbaa !5
  %44 = call i32 @luaError(ptr noundef %43)
  store i32 %44, ptr %2, align 4
  store i32 1, ptr %8, align 4
  br label %84

45:                                               ; preds = %38
  %46 = load i32, ptr %6, align 4, !tbaa !16
  %47 = load i32, ptr getelementptr inbounds nuw (%struct.redisServer, ptr @server, i32 0, i32 159), align 8, !tbaa !29
  %48 = icmp slt i32 %46, %47
  br i1 %48, label %49, label %50

49:                                               ; preds = %45
  store i32 0, ptr %2, align 4
  store i32 1, ptr %8, align 4
  br label %84

50:                                               ; preds = %45
  %51 = call ptr @sdsempty()
  store ptr %51, ptr %7, align 8, !tbaa !10
  store i32 1, ptr %4, align 4, !tbaa !16
  br label %52

52:                                               ; preds = %77, %50
  %53 = load i32, ptr %4, align 4, !tbaa !16
  %54 = load i32, ptr %5, align 4, !tbaa !16
  %55 = icmp slt i32 %53, %54
  br i1 %55, label %56, label %80

56:                                               ; preds = %52
  call void @llvm.lifetime.start.p0(i64 8, ptr %9) #12
  call void @llvm.lifetime.start.p0(i64 8, ptr %10) #12
  %57 = load ptr, ptr %3, align 8, !tbaa !5
  %58 = load i32, ptr %5, align 4, !tbaa !16
  %59 = sub nsw i32 0, %58
  %60 = load i32, ptr %4, align 4, !tbaa !16
  %61 = add nsw i32 %59, %60
  %62 = call ptr @lua_tolstring(ptr noundef %57, i32 noundef %61, ptr noundef %9)
  store ptr %62, ptr %10, align 8, !tbaa !10
  %63 = load ptr, ptr %10, align 8, !tbaa !10
  %64 = icmp ne ptr %63, null
  br i1 %64, label %65, label %76

65:                                               ; preds = %56
  %66 = load i32, ptr %4, align 4, !tbaa !16
  %67 = icmp ne i32 %66, 1
  br i1 %67, label %68, label %71

68:                                               ; preds = %65
  %69 = load ptr, ptr %7, align 8, !tbaa !10
  %70 = call ptr @sdscatlen(ptr noundef %69, ptr noundef @.str.4, i64 noundef 1)
  store ptr %70, ptr %7, align 8, !tbaa !10
  br label %71

71:                                               ; preds = %68, %65
  %72 = load ptr, ptr %7, align 8, !tbaa !10
  %73 = load ptr, ptr %10, align 8, !tbaa !10
  %74 = load i64, ptr %9, align 8, !tbaa !23
  %75 = call ptr @sdscatlen(ptr noundef %72, ptr noundef %73, i64 noundef %74)
  store ptr %75, ptr %7, align 8, !tbaa !10
  br label %76

76:                                               ; preds = %71, %56
  call void @llvm.lifetime.end.p0(i64 8, ptr %10) #12
  call void @llvm.lifetime.end.p0(i64 8, ptr %9) #12
  br label %77

77:                                               ; preds = %76
  %78 = load i32, ptr %4, align 4, !tbaa !16
  %79 = add nsw i32 %78, 1
  store i32 %79, ptr %4, align 4, !tbaa !16
  br label %52, !llvm.loop !63

80:                                               ; preds = %52
  %81 = load i32, ptr %6, align 4, !tbaa !16
  %82 = load ptr, ptr %7, align 8, !tbaa !10
  call void @serverLogRaw(i32 noundef %81, ptr noundef %82)
  %83 = load ptr, ptr %7, align 8, !tbaa !10
  call void @sdsfree(ptr noundef %83)
  store i32 0, ptr %2, align 4
  store i32 1, ptr %8, align 4
  br label %84

84:                                               ; preds = %80, %49, %41, %25, %15
  call void @llvm.lifetime.end.p0(i64 8, ptr %7) #12
  call void @llvm.lifetime.end.p0(i64 4, ptr %6) #12
  call void @llvm.lifetime.end.p0(i64 4, ptr %5) #12
  call void @llvm.lifetime.end.p0(i64 4, ptr %4) #12
  %85 = load i32, ptr %2, align 4
  ret i32 %85
}